target datalayout = "e-m:e-p270:32:32-p271:32:32-p272:64:64-i64:64-i128:128-f80:128-n8:16:32:64-S128"
target triple = "x86_64-pc-linux-gnu"

%struct.dtlink_s_ = type { ptr, %union.anon }
%union.anon = type { ptr }
%struct.Agsym_s = type { %struct.dtlink_s_, ptr, ptr, i32, i8, i8, i8 }

@.str.121 = private unnamed_addr constant [1 x i8] zeroinitializer, align 1
@.str.141 = private unnamed_addr constant [6 x i8] c"graph\00", align 1
@.str.142 = private unnamed_addr constant [5 x i8] c"node\00", align 1
@.str.143 = private unnamed_addr constant [5 x i8] c"edge\00", align 1
@.str.148 = private unnamed_addr constant [33 x i8] c"Unknown kind \22%s\22 passed to %s()\00", align 1
@.str.149 = private unnamed_addr constant [8 x i8] c"getDflt\00", align 1
@.str.150 = private unnamed_addr constant [38 x i8] c"Uninitialized %s attribute \22%s\22 in %s\00", align 1

; Function Attrs: nounwind uwtable
define internal ptr @kindToStr(i32 noundef %0) #0 {
  %2 = alloca i32, align 4
  %3 = alloca ptr, align 8
  store i32 %0, ptr %2, align 4, !tbaa !26
  call void @llvm.lifetime.start.p0(i64 8, ptr %3) #16
  %4 = load i32, ptr %2, align 4, !tbaa !26
  switch i32 %4, label %7 [
    i32 0, label %5
    i32 1, label %6
  ]

5:                                                ; preds = %1
  store ptr @.str.141, ptr %3, align 8, !tbaa !7
  br label %8

6:                                                ; preds = %1
  store ptr @.str.142, ptr %3, align 8, !tbaa !7
  br label %8

7:                                                ; preds = %1
  store ptr @.str.143, ptr %3, align 8, !tbaa !7
  br label %8

8:                                                ; preds = %7, %6, %5
  %9 = load ptr, ptr %3, align 8, !tbaa !7
  call void @llvm.lifetime.end.p0(i64 8, ptr %3) #16
  ret ptr %9
}

; Function Attrs: nounwind uwtable
define internal i32 @toKind(ptr noundef %0, ptr noundef %1) #0 {
  %3 = alloca ptr, align 8
  %4 = alloca ptr, align 8
  %5 = alloca i32, align 4
  store ptr %0, ptr %3, align 8, !tbaa !7
  store ptr %1, ptr %4, align 8, !tbaa !7
  call void @llvm.lifetime.start.p0(i64 4, ptr %5) #16
  %6 = load ptr, ptr %3, align 8, !tbaa !7
  %7 = load i8, ptr %6, align 1, !tbaa !97
  %8 = sext i8 %7 to i32
  switch i32 %8, label %12 [
    i32 71, label %9
    i32 69, label %10
    i32 78, label %11
  ]

9:                                                ; preds = %2
  store i32 0, ptr %5, align 4, !tbaa !26
  br label %15

10:                                               ; preds = %2
  store i32 2, ptr %5, align 4, !tbaa !26
  br label %15

11:                                               ; preds = %2
  store i32 1, ptr %5, align 4, !tbaa !26
  br label %15

12:                                               ; preds = %2
  %13 = load ptr, ptr %3, align 8, !tbaa !7
  %14 = load ptr, ptr %4, align 8, !tbaa !7
  call void (ptr, ...) @exerror(ptr noundef @.str.148, ptr noundef %13, ptr noundef %14)
  store i32 0, ptr %5, align 4, !tbaa !26
  br label %15

15:                                               ; preds = %12, %11, %10, %9
  %16 = load i32, ptr %5, align 4, !tbaa !26
  call void @llvm.lifetime.end.p0(i64 4, ptr %5) #16
  ret i32 %16
}

; Function Attrs: nounwind uwtable
define internal ptr @getDfltAttr(ptr noundef %0, ptr noundef %1, ptr noundef %2) #0 {
  %4 = alloca ptr, align 8
  %5 = alloca ptr, align 8
  %6 = alloca ptr, align 8
  %7 = alloca i32, align 4
  %8 = alloca ptr, align 8
  store ptr %0, ptr %4, align 8, !tbaa !92
  store ptr %1, ptr %5, align 8, !tbaa !7
  store ptr %2, ptr %6, align 8, !tbaa !7
  call void @llvm.lifetime.start.p0(i64 4, ptr %7) #16
  %9 = load ptr, ptr %5, align 8, !tbaa !7
  %10 = call i32 @toKind(ptr noundef %9, ptr noundef @.str.149)
  store i32 %10, ptr %7, align 4, !tbaa !26
  call void @llvm.lifetime.start.p0(i64 8, ptr %8) #16
  %11 = load ptr, ptr %4, align 8, !tbaa !92
  %12 = load i32, ptr %7, align 4, !tbaa !26
  %13 = load ptr, ptr %6, align 8, !tbaa !7
  %14 = call ptr @agattr(ptr noundef %11, i32 noundef %12, ptr noundef %13, ptr noundef null)
  store ptr %14, ptr %8, align 8, !tbaa !119
  %15 = load ptr, ptr %8, align 8, !tbaa !119
  %16 = icmp ne ptr %15, null
  br i1 %16, label %25, label %17

17:                                               ; preds = %3
  %18 = load ptr, ptr %4, align 8, !tbaa !92
  %19 = load i32, ptr %7, align 4, !tbaa !26
  %20 = load ptr, ptr %6, align 8, !tbaa !7
  %21 = call ptr @agattr(ptr noundef %18, i32 noundef %19, ptr noundef %20, ptr noundef @.str.121)
  store ptr %21, ptr %8, align 8, !tbaa !119
  %22 = load i32, ptr %7, align 4, !tbaa !26
  %23 = call ptr @kindToStr(i32 noundef %22)
  %24 = load ptr, ptr %6, align 8, !tbaa !7
  call void (i32, ptr, ...) @error(i32 noundef 1, ptr noundef @.str.150, ptr noundef %23, ptr noundef %24, ptr noundef @.str.149)
  br label %25

25:                                               ; preds = %17, %3
  %26 = load ptr, ptr %8, align 8, !tbaa !119
  %27 = getelementptr inbounds nuw %struct.Agsym_s, ptr %26, i32 0, i32 2
  %28 = load ptr, ptr %27, align 8, !tbaa !141
  call void @llvm.lifetime.end.p0(i64 8, ptr %8) #16
  call void @llvm.lifetime.end.p0(i64 4, ptr %7) #16
  ret ptr %28
}