; Function Attrs: nounwind uwtable
define internal fastcc ptr @getDfltAttr(ptr noundef nonnull %0, ptr noundef nonnull %1, ptr noundef nonnull %2) unnamed_addr #0 {
  %4 = load i8, ptr %1, align 1, !tbaa !65
  switch i8 %4, label %7 [
    i8 71, label %toKind.exit
    i8 69, label %5
    i8 78, label %6
  ]

5:                                                ; preds = %3
  br label %toKind.exit

6:                                                ; preds = %3
  br label %toKind.exit

7:                                                ; preds = %3
  tail call void (ptr, ...) @exerror(ptr noundef nonnull @.str.148, ptr noundef nonnull %1, ptr noundef nonnull @.str.149) #25
  br label %toKind.exit

toKind.exit:                                      ; preds = %3, %5, %6, %7
  %switch.selectcmp1.i = phi ptr [ @.str.141, %7 ], [ @.str.142, %6 ], [ @.str.143, %5 ], [ @.str.141, %3 ]
  %.0.i = phi i32 [ 0, %7 ], [ 1, %6 ], [ 2, %5 ], [ 0, %3 ]
  %8 = tail call ptr @agattr(ptr noundef nonnull %0, i32 noundef %.0.i, ptr noundef nonnull %2, ptr noundef null) #25
  %.not = icmp eq ptr %8, null
  br i1 %.not, label %9, label %11

9:                                                ; preds = %toKind.exit
  %10 = tail call ptr @agattr(ptr noundef nonnull %0, i32 noundef %.0.i, ptr noundef nonnull %2, ptr noundef nonnull @.str.121) #25
  tail call void (i32, ptr, ...) @error(i32 noundef 1, ptr noundef nonnull @.str.150, ptr noundef nonnull %switch.selectcmp1.i, ptr noundef nonnull %2, ptr noundef nonnull @.str.149) #25
  br label %11

11:                                               ; preds = %9, %toKind.exit
  %.0 = phi ptr [ %8, %toKind.exit ], [ %10, %9 ]
  %12 = getelementptr inbounds nuw i8, ptr %.0, i64 24
  %13 = load ptr, ptr %12, align 8, !tbaa !137
  ret ptr %13
}